; ModuleID = 'source-C-CXX/15/1446.c'
source_filename = "source-C-CXX/15/1446.c"
target datalayout = "e-m:e-p270:32:32-p271:32:32-p272:64:64-i64:64-f80:128-n8:16:32:64-S128"
target triple = "x86_64-pc-linux-gnu"

@.str = private unnamed_addr constant [3 x i8] c"%d\00", align 1
@.str.1 = private unnamed_addr constant [12 x i8] c"%d%d%d%d%d\0A\00", align 1
@.str.2 = private unnamed_addr constant [4 x i8] c"%d\0A\00", align 1
@.str.3 = private unnamed_addr constant [6 x i8] c"%d%d\0A\00", align 1
@.str.4 = private unnamed_addr constant [8 x i8] c"%d%d%d\0A\00", align 1
@.str.5 = private unnamed_addr constant [10 x i8] c"%d%d%d%d\0A\00", align 1

; Function Attrs: nofree nounwind sspstrong uwtable
define dso_local i32 @main() local_unnamed_addr #0 {
  %1 = alloca i32, align 4
  %2 = bitcast i32* %1 to i8*
  call void @llvm.lifetime.start.p0i8(i64 4, i8* nonnull %2) #3
  %3 = call i32 (i8*, ...) @__isoc99_scanf(i8* getelementptr inbounds ([3 x i8], [3 x i8]* @.str, i64 0, i64 0), i32* nonnull %1)
  %4 = load i32, i32* %1, align 4, !tbaa !5
  %5 = icmp eq i32 %4, 10000
  br i1 %5, label %6, label %9

6:                                                ; preds = %0
  %7 = call i32 (i8*, ...) @printf(i8* nonnull dereferenceable(1) getelementptr inbounds ([12 x i8], [12 x i8]* @.str.1, i64 0, i64 0), i32 0, i32 0, i32 0, i32 0, i32 1)
  %8 = load i32, i32* %1, align 4, !tbaa !5
  br label %9

9:                                                ; preds = %6, %0
  %10 = phi i32 [ %8, %6 ], [ %4, %0 ]
  %11 = icmp slt i32 %10, 11
  br i1 %11, label %12, label %14

12:                                               ; preds = %9
  %13 = call i32 (i8*, ...) @printf(i8* nonnull dereferenceable(1) getelementptr inbounds ([4 x i8], [4 x i8]* @.str.2, i64 0, i64 0), i32 %10)
  br label %55

14:                                               ; preds = %9
  %15 = icmp slt i32 %10, 100
  br i1 %15, label %16, label %24

16:                                               ; preds = %14
  %17 = trunc i32 %10 to i8
  %18 = urem i8 %17, 100
  %19 = udiv i8 %18, 10
  %20 = zext i8 %19 to i32
  %21 = urem i8 %17, 10
  %22 = zext i8 %21 to i32
  %23 = call i32 (i8*, ...) @printf(i8* nonnull dereferenceable(1) getelementptr inbounds ([6 x i8], [6 x i8]* @.str.3, i64 0, i64 0), i32 %22, i32 %20)
  br label %55

24:                                               ; preds = %14
  %25 = icmp slt i32 %10, 1000
  br i1 %25, label %26, label %38

26:                                               ; preds = %24
  %27 = trunc i32 %10 to i16
  %28 = urem i16 %27, 1000
  %29 = udiv i16 %28, 100
  %30 = zext i16 %29 to i32
  %31 = urem i16 %27, 100
  %32 = trunc i16 %31 to i8
  %33 = udiv i8 %32, 10
  %34 = zext i8 %33 to i32
  %35 = urem i16 %27, 10
  %36 = zext i16 %35 to i32
  %37 = call i32 (i8*, ...) @printf(i8* nonnull dereferenceable(1) getelementptr inbounds ([8 x i8], [8 x i8]* @.str.4, i64 0, i64 0), i32 %36, i32 %34, i32 %30)
  br label %55

38:                                               ; preds = %24
  %39 = icmp slt i32 %10, 10000
  br i1 %39, label %40, label %55

40:                                               ; preds = %38
  %41 = trunc i32 %10 to i16
  %42 = urem i16 %41, 10000
  %43 = udiv i16 %42, 1000
  %44 = zext i16 %43 to i32
  %45 = urem i16 %41, 1000
  %46 = udiv i16 %45, 100
  %47 = zext i16 %46 to i32
  %48 = urem i16 %41, 100
  %49 = trunc i16 %48 to i8
  %50 = udiv i8 %49, 10
  %51 = zext i8 %50 to i32
  %52 = urem i16 %41, 10
  %53 = zext i16 %52 to i32
  %54 = call i32 (i8*, ...) @printf(i8* nonnull dereferenceable(1) getelementptr inbounds ([10 x i8], [10 x i8]* @.str.5, i64 0, i64 0), i32 %53, i32 %51, i32 %47, i32 %44)
  br label %55

55:                                               ; preds = %16, %38, %40, %26, %12
  call void @llvm.lifetime.end.p0i8(i64 4, i8* nonnull %2) #3
  ret i32 0
}

; Function Attrs: argmemonly mustprogress nofree nosync nounwind willreturn
declare void @llvm.lifetime.start.p0i8(i64 immarg, i8* nocapture) #1

; Function Attrs: nofree nounwind
declare noundef i32 @__isoc99_scanf(i8* nocapture noundef readonly, ...) local_unnamed_addr #2

; Function Attrs: nofree nounwind
declare noundef i32 @printf(i8* nocapture noundef readonly, ...) local_unnamed_addr #2

; Function Attrs: argmemonly mustprogress nofree nosync nounwind willreturn
declare void @llvm.lifetime.end.p0i8(i64 immarg, i8* nocapture) #1


!llvm.module.flags = !{!0, !1, !2, !3}
!llvm.ident = !{!4}

!0 = !{i32 1, !"wchar_size", i32 4}
!1 = !{i32 7, !"PIC Level", i32 2}
!2 = !{i32 7, !"PIE Level", i32 2}
!3 = !{i32 7, !"uwtable", i32 1}
!4 = !{!"clang version 13.0.0"}
!5 = !{!6, !6, i64 0}
!6 = !{!"int", !7, i64 0}
!7 = !{!"omnipotent char", !8, i64 0}
!8 = !{!"Simple C/C++ TBAA"}
